Certificate:
    Data:
        Version: 3 (0x2)
        Serial Number: 2 (0x2)
        Signature Algorithm: md5WithRSAEncryption
        Issuer: C=US, ST=Colorado, O=Grimer Softwork, OU=R&D, CN=OCSP CA
        Validity
            Not Before: Jul 27 03:57:41 2021 GMT
            Not After : Jul 26 03:57:41 2026 GMT
        Subject: C=US, ST=Colorado, O=Grimer Softwork, OU=R&D, CN=OCSP Client
        Subject Public Key Info:
            Public Key Algorithm: rsaEncryption
                RSA Public-Key: (2048 bit)
                Modulus:
                    00:ee:0f:9c:f4:b1:fd:4f:09:59:04:85:d5:ff:b5:
                    49:5e:8a:7e:1c:c2:88:2d:d0:29:74:97:da:d7:71:
                    14:b2:23:a4:f0:77:64:40:13:7a:64:58:4b:11:93:
                    40:82:34:c6:e7:ab:af:1c:59:ea:ad:6a:18:a7:19:
                    38:3a:f3:0b:b7:e5:a6:71:b2:cc:cd:a2:fd:a2:a6:
                    49:16:3f:5f:7e:42:81:fa:f3:81:2a:10:b3:f8:a3:
                    d4:1a:ac:7f:e2:c1:59:5f:68:6b:08:b7:30:70:f1:
                    41:42:e7:04:4f:19:b2:cd:3f:2a:f9:ac:a5:3e:07:
                    16:e0:65:6d:f7:42:39:bf:6f:ed:0f:61:6d:0d:7e:
                    34:78:01:33:23:f1:ac:d4:d6:c0:48:e6:2b:ce:0b:
                    f4:84:bd:1a:23:22:63:de:01:55:92:69:c0:45:42:
                    68:38:4d:4e:3b:90:aa:ca:d2:4d:d9:94:10:6b:ab:
                    91:8c:d8:f1:38:5e:f9:0a:2b:87:bc:85:3a:6a:b9:
                    3c:af:c7:78:c3:f2:9b:75:13:14:f3:ba:93:2a:cb:
                    e0:0a:b6:ef:ef:ae:0f:92:36:96:2b:d4:7f:83:a2:
                    4b:99:44:21:20:f7:96:ae:93:f0:4f:27:f3:94:71:
                    e3:79:d2:bd:02:88:3a:d7:61:08:9e:46:3a:fa:c6:
                    42:17
                Exponent: 65537 (0x10001)
        X509v3 extensions:
            X509v3 Basic Constraints: 
                CA:FALSE
            X509v3 Subject Key Identifier: 
                9A:41:9F:07:A4:28:94:6F:B7:5A:3B:F3:DE:D2:7E:23:98:3C:5B:AB
            X509v3 Authority Key Identifier: 
                keyid:F8:F8:94:1B:23:52:14:E2:A7:75:CB:E0:70:BF:BA:DA:B8:AA:AE:89

            Authority Information Access: 
                OCSP - URI:http://localhost:9999

            X509v3 Key Usage: critical
                Digital Signature, Key Encipherment
            X509v3 Extended Key Usage: 
                TLS Web Client Authentication
    Signature Algorithm: md5WithRSAEncryption
         76:28:38:ef:7b:f7:71:e5:3c:fb:86:38:16:5b:99:8a:a9:eb:
         7f:a5:88:ca:4d:03:ed:4b:34:5d:30:03:b0:fd:25:97:79:88:
         cb:ee:37:00:6b:05:6a:6a:6f:23:8a:18:9d:2a:14:45:10:74:
         78:a7:91:93:a2:12:02:26:31:64:95:56:3c:59:fa:a9:9c:b0:
         42:ca:f1:33:90:71:9f:95:b0:bd:cc:63:8a:54:78:c4:1a:c0:
         69:98:b2:63:46:8e:80:8f:fd:d5:ba:1f:d7:6a:1c:fb:c9:18:
         b0:43:1e:e6:e3:09:22:e8:41:0b:dc:98:bf:d0:90:7c:43:c7:
         be:41:3d:ee:ad:86:9f:c1:54:34:5e:48:bf:f5:08:95:03:54:
         57:66:81:59:f9:48:e0:d2:81:0d:e0:58:ac:60:8b:99:b8:a0:
         b3:75:4f:3a:a2:01:4f:e5:17:5f:66:13:44:ff:11:f8:f1:6e:
         e2:51:ea:8c:43:c7:37:21:55:d9:b5:6d:2c:2b:9e:92:09:7d:
         01:4e:9d:bc:34:88:af:d0:bf:e1:e9:80:71:17:c8:49:80:eb:
         94:f7:4a:34:2b:b9:e2:f2:ad:b2:83:75:8f:d0:15:a0:7c:89:
         de:5b:d5:de:ba:dc:1d:83:4c:67:16:07:cd:5a:8b:55:2f:5a:
         cc:d8:12:ad
-----BEGIN CERTIFICATE-----
MIID2jCCAsKgAwIBAgIBAjANBgkqhkiG9w0BAQQFADBaMQswCQYDVQQGEwJVUzER
MA8GA1UECAwIQ29sb3JhZG8xGDAWBgNVBAoMD0dyaW1lciBTb2Z0d29yazEMMAoG
A1UECwwDUiZEMRAwDgYDVQQDDAdPQ1NQIENBMB4XDTIxMDcyNzAzNTc0MVoXDTI2
MDcyNjAzNTc0MVowXjELMAkGA1UEBhMCVVMxETAPBgNVBAgMCENvbG9yYWRvMRgw
FgYDVQQKDA9HcmltZXIgU29mdHdvcmsxDDAKBgNVBAsMA1ImRDEUMBIGA1UEAwwL
T0NTUCBDbGllbnQwggEiMA0GCSqGSIb3DQEBAQUAA4IBDwAwggEKAoIBAQDuD5z0
sf1PCVkEhdX/tUlein4cwogt0Cl0l9rXcRSyI6Twd2RAE3pkWEsRk0CCNMbnq68c
WeqtahinGTg68wu35aZxsszNov2ipkkWP19+QoH684EqELP4o9QarH/iwVlfaGsI
tzBw8UFC5wRPGbLNPyr5rKU+BxbgZW33Qjm/b+0PYW0NfjR4ATMj8azU1sBI5ivO
C/SEvRojImPeAVWSacBFQmg4TU47kKrK0k3ZlBBrq5GM2PE4XvkKK4e8hTpquTyv
x3jD8pt1ExTzupMqy+AKtu/vrg+SNpYr1H+DokuZRCEg95auk/BPJ/OUceN50r0C
iDrXYQieRjr6xkIXAgMBAAGjgaYwgaMwCQYDVR0TBAIwADAdBgNVHQ4EFgQUmkGf
B6QolG+3Wjvz3tJ+I5g8W6swHwYDVR0jBBgwFoAU+PiUGyNSFOKndcvgcL+62riq
rokwMQYIKwYBBQUHAQEEJTAjMCEGCCsGAQUFBzABhhVodHRwOi8vbG9jYWxob3N0
Ojk5OTkwDgYDVR0PAQH/BAQDAgWgMBMGA1UdJQQMMAoGCCsGAQUFBwMCMA0GCSqG
SIb3DQEBBAUAA4IBAQB2KDjve/dx5Tz7hjgWW5mKqet/pYjKTQPtSzRdMAOw/SWX
eYjL7jcAawVqam8jihidKhRFEHR4p5GTohICJjFklVY8WfqpnLBCyvEzkHGflbC9
zGOKVHjEGsBpmLJjRo6Aj/3Vuh/Xahz7yRiwQx7m4wki6EEL3Ji/0JB8Q8e+QT3u
rYafwVQ0Xki/9QiVA1RXZoFZ+Ujg0oEN4FisYIuZuKCzdU86ogFP5RdfZhNE/xH4
8W7iUeqMQ8c3IVXZtW0sK56SCX0BTp28NIiv0L/h6YBxF8hJgOuU90o0K7ni8q2y
g3WP0BWgfIneW9Xeutwdg0xnFgfNWotVL1rM2BKt
-----END CERTIFICATE-----
