Certificate:
    Data:
        Version: 3 (0x2)
        Serial Number: 3 (0x3)
        Signature Algorithm: md5WithRSAEncryption
        Issuer: C=US, ST=Colorado, O=Grimer Softwork, OU=R&D, CN=OCSP CA
        Validity
            Not Before: Jun  6 19:40:09 2021 GMT
            Not After : Jun  5 19:40:09 2026 GMT
        Subject: C=US, ST=Colorado, O=Grimer Softwork, OU=R&D, CN=OCSP Client
        Subject Public Key Info:
            Public Key Algorithm: rsaEncryption
                RSA Public-Key: (2048 bit)
                Modulus:
                    00:be:69:46:cd:9a:fe:a5:19:07:ff:77:12:e4:23:
                    b5:d4:89:6f:30:c8:8c:0f:9c:2d:d1:b0:1a:5c:49:
                    0b:11:45:8c:48:d7:77:4f:d1:c9:c0:e2:c0:d5:38:
                    bb:59:be:fc:de:ca:dd:67:d1:f5:ce:6d:7c:83:3c:
                    c4:96:62:37:6b:46:bc:59:0c:f0:9c:cd:f3:bc:52:
                    88:6c:4e:c5:c5:1a:c3:aa:6f:a7:d5:c9:1a:29:24:
                    c8:1f:1d:3e:03:be:ae:a9:09:39:90:f3:f2:ab:ff:
                    70:a0:ff:f0:67:a3:45:14:df:dc:f6:18:f3:ad:de:
                    5b:e1:04:5a:27:04:bb:5e:ce:d0:5d:3c:03:7c:f3:
                    0b:43:53:c3:e7:d4:61:b8:e0:3b:a6:51:8f:9a:a6:
                    25:c0:25:9c:90:02:64:88:5b:82:17:44:cb:c9:72:
                    26:3d:f9:34:5f:f7:8b:57:db:a5:4a:65:2a:c2:d4:
                    2b:53:2d:55:60:e8:6a:1a:5d:d4:aa:e7:b5:0b:b3:
                    f6:73:79:db:70:84:b4:bd:86:5b:6d:0c:3e:73:c0:
                    d7:b2:6a:0a:d3:3c:63:0d:89:42:24:4a:81:33:e5:
                    b7:0b:ab:b1:a6:58:e1:3d:48:15:8b:6d:5b:da:b6:
                    46:4c:74:9c:09:ed:c0:08:c9:a0:e6:cb:f0:6b:10:
                    7e:1f
                Exponent: 65537 (0x10001)
        X509v3 extensions:
            X509v3 Basic Constraints: 
                CA:FALSE
            X509v3 Subject Key Identifier: 
                88:C6:1D:0C:BD:CA:7A:DA:14:08:7E:CE:4D:D7:12:E0:D7:BA:A4:B3
            X509v3 Authority Key Identifier: 
                keyid:38:AB:47:15:41:B5:24:61:36:35:1F:53:3D:9B:3F:25:74:95:0F:CE

            Authority Information Access: 
                OCSP - URI:http://localhost:9999

            X509v3 Key Usage: critical
                Digital Signature, Key Encipherment
            X509v3 Extended Key Usage: 
                TLS Web Client Authentication
    Signature Algorithm: md5WithRSAEncryption
         49:6a:c7:c7:e3:58:5a:95:a0:dc:77:d5:2b:e1:a2:22:3f:a3:
         d3:be:3c:f8:e0:d3:8d:6a:b0:1c:73:56:3a:49:75:72:2d:01:
         c7:35:49:6b:b0:4b:83:b4:dd:f1:53:27:63:b6:bf:a3:83:8c:
         9d:80:cf:fd:1c:69:23:12:73:73:4a:f7:fd:ef:de:96:de:8d:
         6e:05:24:75:8f:d0:a4:2f:35:47:f8:b6:26:8c:51:c6:0b:5d:
         fb:8f:e8:de:4c:1a:fc:42:76:b8:e5:eb:1a:07:0f:0a:79:6c:
         b5:da:6f:f6:f5:8a:d4:1a:b6:0c:88:f5:1d:53:fc:72:5d:1e:
         e9:4a:5e:3a:c6:c1:f6:ff:01:ba:23:bb:ac:48:f7:22:00:b7:
         ec:96:ab:1d:97:0e:92:a1:4f:d5:0c:64:81:4a:33:6e:89:0a:
         90:78:a9:c9:1c:d3:85:f2:f5:6a:34:90:39:c3:43:6d:ea:1b:
         ed:2f:28:e2:be:83:3c:72:a9:b7:76:03:15:f8:6e:b3:1b:87:
         12:99:1e:b6:8c:c3:34:c4:76:82:af:37:fa:eb:01:b4:df:03:
         ba:89:41:26:64:06:38:45:84:8b:5d:6d:79:68:59:7a:b6:c4:
         d3:8c:32:24:1e:bf:04:a6:bb:88:d1:fb:ff:e9:f7:2b:5c:84:
         01:0f:45:fd
-----BEGIN CERTIFICATE-----
MIID2jCCAsKgAwIBAgIBAzANBgkqhkiG9w0BAQQFADBaMQswCQYDVQQGEwJVUzER
MA8GA1UECAwIQ29sb3JhZG8xGDAWBgNVBAoMD0dyaW1lciBTb2Z0d29yazEMMAoG
A1UECwwDUiZEMRAwDgYDVQQDDAdPQ1NQIENBMB4XDTIxMDYwNjE5NDAwOVoXDTI2
MDYwNTE5NDAwOVowXjELMAkGA1UEBhMCVVMxETAPBgNVBAgMCENvbG9yYWRvMRgw
FgYDVQQKDA9HcmltZXIgU29mdHdvcmsxDDAKBgNVBAsMA1ImRDEUMBIGA1UEAwwL
T0NTUCBDbGllbnQwggEiMA0GCSqGSIb3DQEBAQUAA4IBDwAwggEKAoIBAQC+aUbN
mv6lGQf/dxLkI7XUiW8wyIwPnC3RsBpcSQsRRYxI13dP0cnA4sDVOLtZvvzeyt1n
0fXObXyDPMSWYjdrRrxZDPCczfO8UohsTsXFGsOqb6fVyRopJMgfHT4Dvq6pCTmQ
8/Kr/3Cg//Bno0UU39z2GPOt3lvhBFonBLteztBdPAN88wtDU8Pn1GG44DumUY+a
piXAJZyQAmSIW4IXRMvJciY9+TRf94tX26VKZSrC1CtTLVVg6GoaXdSq57ULs/Zz
edtwhLS9hlttDD5zwNeyagrTPGMNiUIkSoEz5bcLq7GmWOE9SBWLbVvatkZMdJwJ
7cAIyaDmy/BrEH4fAgMBAAGjgaYwgaMwCQYDVR0TBAIwADAdBgNVHQ4EFgQUiMYd
DL3KetoUCH7OTdcS4Ne6pLMwHwYDVR0jBBgwFoAUOKtHFUG1JGE2NR9TPZs/JXSV
D84wMQYIKwYBBQUHAQEEJTAjMCEGCCsGAQUFBzABhhVodHRwOi8vbG9jYWxob3N0
Ojk5OTkwDgYDVR0PAQH/BAQDAgWgMBMGA1UdJQQMMAoGCCsGAQUFBwMCMA0GCSqG
SIb3DQEBBAUAA4IBAQBJasfH41halaDcd9Ur4aIiP6PTvjz44NONarAcc1Y6SXVy
LQHHNUlrsEuDtN3xUydjtr+jg4ydgM/9HGkjEnNzSvf9796W3o1uBSR1j9CkLzVH
+LYmjFHGC137j+jeTBr8Qna45esaBw8KeWy12m/29YrUGrYMiPUdU/xyXR7pSl46
xsH2/wG6I7usSPciALfslqsdlw6SoU/VDGSBSjNuiQqQeKnJHNOF8vVqNJA5w0Nt
6hvtLyjivoM8cqm3dgMV+G6zG4cSmR62jMM0xHaCrzf66wG03wO6iUEmZAY4RYSL
XW15aFl6tsTTjDIkHr8EpruI0fv/6fcrXIQBD0X9
-----END CERTIFICATE-----
