Certificate:
    Data:
        Version: 3 (0x2)
        Serial Number: 2 (0x2)
        Signature Algorithm: md5WithRSAEncryption
        Issuer: C=US, ST=Colorado, O=Grimer Softwork, OU=R&D, CN=OCSP CA
        Validity
            Not Before: Jul 21 17:50:25 2021 GMT
            Not After : Jul 20 17:50:25 2026 GMT
        Subject: C=US, ST=Colorado, O=Grimer Softwork, OU=R&D, CN=OCSP Client
        Subject Public Key Info:
            Public Key Algorithm: rsaEncryption
                RSA Public-Key: (2048 bit)
                Modulus:
                    00:d8:be:84:a0:f9:00:f3:38:fb:97:39:87:65:6a:
                    ed:1c:f8:88:33:1f:cc:ea:3c:16:31:4c:fe:07:83:
                    21:93:cc:9f:c3:c1:e3:50:bd:30:df:7e:55:41:81:
                    4c:05:24:a3:14:ca:6a:3c:55:52:55:19:6d:b7:7f:
                    39:8e:c1:c0:af:7e:ad:1e:e3:7f:d1:fc:65:fe:95:
                    2d:d3:b7:ac:66:f0:ae:2f:3c:8e:5f:6c:59:36:e6:
                    02:4e:d2:a6:ba:1c:da:d5:02:24:51:a4:1a:62:18:
                    88:b9:c7:0b:1a:06:7f:87:46:9c:d1:b7:a5:7f:32:
                    65:be:9b:94:88:df:0f:ab:fa:a7:b8:f8:3b:95:60:
                    92:3d:5b:67:cc:1e:ce:2f:52:f1:bf:ce:7b:bb:e8:
                    c6:a8:5e:e7:b3:ff:85:fe:57:d7:60:1d:66:88:46:
                    36:9c:fc:d7:19:5d:06:d1:a7:73:e9:de:c2:8b:62:
                    f1:73:a4:92:b0:ea:fa:9a:ac:a2:5a:b0:da:4b:c0:
                    66:4f:8e:56:b4:ec:c0:90:0a:b9:2d:df:30:75:91:
                    a9:d2:3c:b7:23:fe:db:96:31:71:ef:a4:41:76:60:
                    c5:d8:ae:d9:c8:99:6a:18:a4:29:1e:51:f2:af:14:
                    d4:5a:af:20:07:0d:b8:16:c8:cc:6b:51:c0:1b:7d:
                    b8:a1
                Exponent: 65537 (0x10001)
        X509v3 extensions:
            X509v3 Basic Constraints: 
                CA:FALSE
            X509v3 Subject Key Identifier: 
                84:59:80:F5:C9:9F:C3:F2:D7:13:A1:A6:64:3F:DA:10:03:E9:2E:DE
            X509v3 Authority Key Identifier: 
                keyid:E1:F0:95:5B:5D:D6:DE:63:B4:D0:AF:7F:69:E9:18:AA:ED:FF:09:03

            Authority Information Access: 
                OCSP - URI:http://localhost:9999

            X509v3 Key Usage: critical
                Digital Signature, Key Encipherment
            X509v3 Extended Key Usage: 
                TLS Web Client Authentication
    Signature Algorithm: md5WithRSAEncryption
         d8:02:1d:6f:ac:d8:31:aa:ab:49:b6:18:c9:cd:25:41:ab:8a:
         01:b8:d1:f1:a8:4c:21:d4:09:84:76:f1:90:29:0e:e6:ad:02:
         e4:4b:78:82:2a:54:aa:e3:8a:aa:f2:0e:21:7d:56:cf:57:99:
         d6:1a:70:19:95:54:71:3c:6e:94:e5:65:ea:9d:dd:cf:3e:16:
         6d:0f:e5:8d:cd:bb:07:c6:f0:09:cc:14:1e:b0:27:76:99:c0:
         6a:bb:d9:8e:10:07:64:a6:7c:8a:e5:2d:a7:ca:ae:8e:5f:c3:
         c6:ac:0e:a4:ee:25:ba:07:74:26:49:1b:ed:73:86:fb:35:0c:
         2f:7a:3a:5b:0b:92:b3:ca:7a:b5:2a:78:d6:a4:03:41:04:6c:
         33:12:21:f1:2f:5a:91:a5:e7:21:8a:85:8f:c0:ef:64:b0:26:
         fd:ac:76:62:d9:0e:9a:93:6f:82:12:ca:96:4d:83:00:82:e2:
         43:95:78:d5:0b:a6:22:46:72:77:47:36:ba:32:f4:c1:70:b0:
         37:ee:8d:a6:25:c9:58:ea:02:e3:25:8e:60:2d:30:64:e7:38:
         90:69:13:ff:ec:31:e8:81:6d:a2:c7:cc:f7:83:ad:6d:b3:9f:
         96:5d:d9:e0:9d:81:e3:42:56:a3:3a:b9:ff:31:35:92:d3:5e:
         f0:77:e4:9b
-----BEGIN CERTIFICATE-----
MIID2jCCAsKgAwIBAgIBAjANBgkqhkiG9w0BAQQFADBaMQswCQYDVQQGEwJVUzER
MA8GA1UECAwIQ29sb3JhZG8xGDAWBgNVBAoMD0dyaW1lciBTb2Z0d29yazEMMAoG
A1UECwwDUiZEMRAwDgYDVQQDDAdPQ1NQIENBMB4XDTIxMDcyMTE3NTAyNVoXDTI2
MDcyMDE3NTAyNVowXjELMAkGA1UEBhMCVVMxETAPBgNVBAgMCENvbG9yYWRvMRgw
FgYDVQQKDA9HcmltZXIgU29mdHdvcmsxDDAKBgNVBAsMA1ImRDEUMBIGA1UEAwwL
T0NTUCBDbGllbnQwggEiMA0GCSqGSIb3DQEBAQUAA4IBDwAwggEKAoIBAQDYvoSg
+QDzOPuXOYdlau0c+IgzH8zqPBYxTP4HgyGTzJ/DweNQvTDfflVBgUwFJKMUymo8
VVJVGW23fzmOwcCvfq0e43/R/GX+lS3Tt6xm8K4vPI5fbFk25gJO0qa6HNrVAiRR
pBpiGIi5xwsaBn+HRpzRt6V/MmW+m5SI3w+r+qe4+DuVYJI9W2fMHs4vUvG/znu7
6MaoXuez/4X+V9dgHWaIRjac/NcZXQbRp3Pp3sKLYvFzpJKw6vqarKJasNpLwGZP
jla07MCQCrkt3zB1kanSPLcj/tuWMXHvpEF2YMXYrtnImWoYpCkeUfKvFNRaryAH
DbgWyMxrUcAbfbihAgMBAAGjgaYwgaMwCQYDVR0TBAIwADAdBgNVHQ4EFgQUhFmA
9cmfw/LXE6GmZD/aEAPpLt4wHwYDVR0jBBgwFoAU4fCVW13W3mO00K9/aekYqu3/
CQMwMQYIKwYBBQUHAQEEJTAjMCEGCCsGAQUFBzABhhVodHRwOi8vbG9jYWxob3N0
Ojk5OTkwDgYDVR0PAQH/BAQDAgWgMBMGA1UdJQQMMAoGCCsGAQUFBwMCMA0GCSqG
SIb3DQEBBAUAA4IBAQDYAh1vrNgxqqtJthjJzSVBq4oBuNHxqEwh1AmEdvGQKQ7m
rQLkS3iCKlSq44qq8g4hfVbPV5nWGnAZlVRxPG6U5WXqnd3PPhZtD+WNzbsHxvAJ
zBQesCd2mcBqu9mOEAdkpnyK5S2nyq6OX8PGrA6k7iW6B3QmSRvtc4b7NQwvejpb
C5Kzynq1KnjWpANBBGwzEiHxL1qRpechioWPwO9ksCb9rHZi2Q6ak2+CEsqWTYMA
guJDlXjVC6YiRnJ3Rza6MvTBcLA37o2mJclY6gLjJY5gLTBk5ziQaRP/7DHogW2i
x8z3g61ts5+WXdngnYHjQlajOrn/MTWS017wd+Sb
-----END CERTIFICATE-----
