Certificate:
    Data:
        Version: 3 (0x2)
        Serial Number: 1 (0x1)
        Signature Algorithm: md5WithRSAEncryption
        Issuer: C=US, ST=Colorado, O=Grimer Softwork, OU=R&D, CN=OCSP CA
        Validity
            Not Before: Jun  6 19:30:41 2021 GMT
            Not After : Jun  5 19:30:41 2026 GMT
        Subject: C=US, ST=Colorado, O=Grimer Softwork, OU=R&D, CN=OCSP Responder
        Subject Public Key Info:
            Public Key Algorithm: rsaEncryption
                RSA Public-Key: (2048 bit)
                Modulus:
                    00:a0:0a:a3:d3:73:81:5c:61:48:9e:8b:75:a4:6f:
                    fa:b9:b7:e7:71:36:5c:00:3f:89:69:3f:52:53:c2:
                    f2:54:77:dd:26:f4:ee:f1:96:b4:7b:17:43:e7:18:
                    aa:78:ad:91:0e:d1:9e:b4:fe:7f:a3:79:68:c5:81:
                    a3:6f:59:ce:6e:30:27:a1:30:fd:54:ef:61:ec:9c:
                    5d:49:b2:80:08:0d:dd:69:8b:2c:15:5b:97:c9:e8:
                    e5:7c:1b:d7:96:c3:0d:73:d8:74:f1:02:4c:17:58:
                    8d:ec:6b:20:eb:e2:ef:08:83:75:8b:68:5e:89:db:
                    ad:23:3d:66:03:ed:08:b0:6d:eb:cf:7a:b4:87:e9:
                    2f:30:ac:34:49:03:85:cb:33:6f:95:78:b8:5d:ef:
                    5f:ac:6f:86:4f:5f:ca:99:c7:8f:fb:60:1a:da:64:
                    83:17:55:38:5c:5e:79:f1:67:2d:68:7a:ed:bb:34:
                    d8:a7:1c:b8:a5:1f:ba:9d:8f:74:07:47:73:9d:ab:
                    36:52:75:41:21:ef:30:36:1b:c6:9f:f3:10:cc:3d:
                    23:e8:10:60:f6:27:b8:45:89:d6:e4:a7:b7:18:55:
                    d1:ab:fa:67:f8:9c:04:29:40:cc:a7:71:3f:b8:44:
                    21:ef:1b:47:73:01:82:bd:50:88:a4:ed:b7:03:29:
                    0a:17
                Exponent: 65537 (0x10001)
        X509v3 extensions:
            X509v3 Basic Constraints: 
                CA:FALSE
            X509v3 Subject Key Identifier: 
                C9:0C:CC:8A:99:E5:CF:AA:D1:57:63:5F:0A:69:06:C7:2A:35:8F:65
            X509v3 Authority Key Identifier: 
                keyid:38:AB:47:15:41:B5:24:61:36:35:1F:53:3D:9B:3F:25:74:95:0F:CE

            X509v3 Key Usage: critical
                Digital Signature
            X509v3 Extended Key Usage: critical
                OCSP Signing
    Signature Algorithm: md5WithRSAEncryption
         6b:e3:69:cd:79:7b:cd:ba:d9:9d:e9:4f:90:e7:b4:3a:99:25:
         cd:9b:86:cd:42:3f:35:5c:92:44:81:b5:38:a5:e4:b6:b2:c5:
         16:3d:30:46:e6:f3:6d:d7:f7:56:99:8d:87:d8:00:4f:48:7f:
         49:c9:a4:6c:6f:9b:e8:25:71:2a:bd:87:54:c8:b6:ab:fe:0f:
         1d:14:d1:2f:cd:7a:8b:8d:ca:43:91:cd:bf:49:73:18:1e:5a:
         ed:a6:93:6e:b3:ef:81:e2:1d:d5:52:aa:c7:1f:58:1b:89:d0:
         f2:22:d5:71:13:72:d1:9f:57:c3:a6:f0:a5:da:83:f0:37:54:
         9c:8f:27:d2:c8:99:4a:0a:37:57:2b:d4:75:65:93:ab:c5:1b:
         99:3b:41:5f:ff:18:77:ba:25:6c:21:d4:6e:8b:83:55:17:e3:
         fc:2f:34:9c:88:d6:cf:02:46:b3:a1:3d:1d:be:d3:31:0b:40:
         01:85:39:e8:8f:71:2a:30:b1:31:f6:5a:8e:5f:bc:f1:1c:df:
         d8:dc:ea:6a:58:f8:c0:fa:ae:de:f4:74:fd:9a:e5:0a:49:3b:
         5c:4b:4c:e4:26:a2:75:17:91:17:30:52:19:b0:da:c5:62:5e:
         15:e0:b3:7d:1a:3d:73:90:9e:d1:43:f0:c8:e3:56:d1:1f:e3:
         71:87:fc:5c
-----BEGIN CERTIFICATE-----
MIIDqzCCApOgAwIBAgIBATANBgkqhkiG9w0BAQQFADBaMQswCQYDVQQGEwJVUzER
MA8GA1UECAwIQ29sb3JhZG8xGDAWBgNVBAoMD0dyaW1lciBTb2Z0d29yazEMMAoG
A1UECwwDUiZEMRAwDgYDVQQDDAdPQ1NQIENBMB4XDTIxMDYwNjE5MzA0MVoXDTI2
MDYwNTE5MzA0MVowYTELMAkGA1UEBhMCVVMxETAPBgNVBAgMCENvbG9yYWRvMRgw
FgYDVQQKDA9HcmltZXIgU29mdHdvcmsxDDAKBgNVBAsMA1ImRDEXMBUGA1UEAwwO
T0NTUCBSZXNwb25kZXIwggEiMA0GCSqGSIb3DQEBAQUAA4IBDwAwggEKAoIBAQCg
CqPTc4FcYUiei3Wkb/q5t+dxNlwAP4lpP1JTwvJUd90m9O7xlrR7F0PnGKp4rZEO
0Z60/n+jeWjFgaNvWc5uMCehMP1U72HsnF1JsoAIDd1piywVW5fJ6OV8G9eWww1z
2HTxAkwXWI3sayDr4u8Ig3WLaF6J260jPWYD7QiwbevPerSH6S8wrDRJA4XLM2+V
eLhd71+sb4ZPX8qZx4/7YBraZIMXVThcXnnxZy1oeu27NNinHLilH7qdj3QHR3Od
qzZSdUEh7zA2G8af8xDMPSPoEGD2J7hFidbkp7cYVdGr+mf4nAQpQMyncT+4RCHv
G0dzAYK9UIik7bcDKQoXAgMBAAGjdTBzMAkGA1UdEwQCMAAwHQYDVR0OBBYEFMkM
zIqZ5c+q0VdjXwppBscqNY9lMB8GA1UdIwQYMBaAFDirRxVBtSRhNjUfUz2bPyV0
lQ/OMA4GA1UdDwEB/wQEAwIHgDAWBgNVHSUBAf8EDDAKBggrBgEFBQcDCTANBgkq
hkiG9w0BAQQFAAOCAQEAa+NpzXl7zbrZnelPkOe0OpklzZuGzUI/NVySRIG1OKXk
trLFFj0wRubzbdf3VpmNh9gAT0h/ScmkbG+b6CVxKr2HVMi2q/4PHRTRL816i43K
Q5HNv0lzGB5a7aaTbrPvgeId1VKqxx9YG4nQ8iLVcRNy0Z9Xw6bwpdqD8DdUnI8n
0siZSgo3VyvUdWWTq8UbmTtBX/8Yd7olbCHUbouDVRfj/C80nIjWzwJGs6E9Hb7T
MQtAAYU56I9xKjCxMfZajl+88Rzf2Nzqalj4wPqu3vR0/ZrlCkk7XEtM5CaidReR
FzBSGbDaxWJeFeCzfRo9c5Ce0UPwyONW0R/jcYf8XA==
-----END CERTIFICATE-----
