Certificate:
    Data:
        Version: 3 (0x2)
        Serial Number: 1 (0x1)
        Signature Algorithm: md5WithRSAEncryption
        Issuer: C=US, ST=Colorado, O=Grimer Softwork, OU=R&D, CN=OCSP CA
        Validity
            Not Before: Jun 14 01:45:36 2021 GMT
            Not After : Jun 13 01:45:36 2026 GMT
        Subject: C=US, ST=Colorado, O=Grimer Softwork, OU=R&D, CN=OCSP Responder
        Subject Public Key Info:
            Public Key Algorithm: rsaEncryption
                RSA Public-Key: (2048 bit)
                Modulus:
                    00:de:46:62:a7:90:ca:4c:09:0c:de:68:35:81:f3:
                    c7:fb:9e:3d:70:64:b2:34:bb:d4:d1:9f:4c:05:af:
                    4e:92:75:f7:ad:66:b4:dd:fe:bf:05:0e:a2:a8:fc:
                    6c:01:0b:f0:1f:6b:6b:32:69:b9:fb:cf:9e:b4:b5:
                    c7:8f:0e:2a:b2:cf:c4:57:e6:9f:54:93:6a:96:f2:
                    5a:a2:00:51:14:6a:0e:a0:dc:0d:9a:45:7f:46:71:
                    23:62:3b:3e:50:41:6b:5a:7a:e2:9a:af:03:df:71:
                    3e:9e:93:f9:77:5d:1b:b7:38:08:21:6c:80:fc:d6:
                    33:22:d1:ca:cf:f8:80:73:e5:dc:b7:12:42:6d:95:
                    eb:62:46:55:f9:7d:43:f4:dc:63:e2:4f:3b:e7:1e:
                    89:69:14:5c:d0:f6:e6:74:e5:a2:f6:b8:ba:7d:67:
                    75:42:db:c2:f4:8d:10:d8:45:02:e3:98:6a:1b:50:
                    69:cc:da:b7:dd:6f:06:f6:a2:c9:14:d0:f7:a7:28:
                    a8:25:27:74:e6:8f:e2:be:b8:b1:a9:71:d5:e8:36:
                    8f:49:69:2e:b9:ab:8b:73:03:16:59:4e:b8:01:72:
                    8d:a3:96:74:a9:75:32:f3:c0:58:da:c5:98:36:2b:
                    ef:91:ef:73:93:d0:9a:fe:d7:d9:02:55:f7:76:7a:
                    aa:63
                Exponent: 65537 (0x10001)
        X509v3 extensions:
            X509v3 Basic Constraints: 
                CA:FALSE
            X509v3 Subject Key Identifier: 
                A1:33:0D:39:BA:CC:15:F9:71:34:AC:D6:A2:C8:8C:FB:8A:90:21:01
            X509v3 Authority Key Identifier: 
                keyid:ED:2F:72:06:EB:B7:63:94:54:11:99:A4:81:B7:D5:95:FB:CF:CE:5C

            X509v3 Key Usage: critical
                Digital Signature
            X509v3 Extended Key Usage: critical
                OCSP Signing
    Signature Algorithm: md5WithRSAEncryption
         7f:47:1a:b5:4f:8a:80:8d:ad:aa:04:db:fd:6b:09:f7:99:91:
         e9:fe:0d:a3:1e:22:77:8e:08:65:d2:18:2b:6c:56:9a:50:36:
         23:20:39:fa:3f:cf:fa:c4:c5:fe:56:ec:a1:8f:7c:1c:46:a1:
         65:a3:6b:3f:67:2b:6f:3b:82:6b:51:ad:47:a2:a5:bc:4a:dd:
         21:a5:cc:a4:72:46:95:65:53:33:7b:24:8c:f4:53:d4:c8:d5:
         bd:60:bd:68:df:9f:6d:2c:63:46:ea:ee:cb:32:89:33:f3:39:
         8f:6c:81:5b:4a:a6:b7:c8:86:c9:ae:70:22:cf:f2:01:f3:fa:
         48:5e:9b:06:cd:52:59:af:93:08:db:59:96:0e:71:6c:c8:4b:
         e2:4b:7e:2b:8a:b1:35:23:a7:de:7e:bc:08:cf:1b:e9:0d:f5:
         2a:79:db:f1:4f:98:3d:06:7a:3a:63:70:94:3b:9b:90:eb:e8:
         b6:19:c2:21:63:71:e9:6a:c4:cf:c3:dd:84:3f:8f:a6:2b:c8:
         95:6b:06:03:0c:f3:5e:d4:5b:91:c2:5d:3c:67:2f:6d:5f:84:
         dc:84:68:59:54:48:7b:59:14:f8:0f:23:1e:ff:16:9b:46:4f:
         1e:10:c9:0b:15:6c:0f:35:6b:4d:61:11:b1:b3:ec:47:a0:c1:
         62:a6:8c:e6
-----BEGIN CERTIFICATE-----
MIIDqzCCApOgAwIBAgIBATANBgkqhkiG9w0BAQQFADBaMQswCQYDVQQGEwJVUzER
MA8GA1UECAwIQ29sb3JhZG8xGDAWBgNVBAoMD0dyaW1lciBTb2Z0d29yazEMMAoG
A1UECwwDUiZEMRAwDgYDVQQDDAdPQ1NQIENBMB4XDTIxMDYxNDAxNDUzNloXDTI2
MDYxMzAxNDUzNlowYTELMAkGA1UEBhMCVVMxETAPBgNVBAgMCENvbG9yYWRvMRgw
FgYDVQQKDA9HcmltZXIgU29mdHdvcmsxDDAKBgNVBAsMA1ImRDEXMBUGA1UEAwwO
T0NTUCBSZXNwb25kZXIwggEiMA0GCSqGSIb3DQEBAQUAA4IBDwAwggEKAoIBAQDe
RmKnkMpMCQzeaDWB88f7nj1wZLI0u9TRn0wFr06SdfetZrTd/r8FDqKo/GwBC/Af
a2syabn7z560tcePDiqyz8RX5p9Uk2qW8lqiAFEUag6g3A2aRX9GcSNiOz5QQWta
euKarwPfcT6ek/l3XRu3OAghbID81jMi0crP+IBz5dy3EkJtletiRlX5fUP03GPi
TzvnHolpFFzQ9uZ05aL2uLp9Z3VC28L0jRDYRQLjmGobUGnM2rfdbwb2oskU0Pen
KKglJ3Tmj+K+uLGpcdXoNo9JaS65q4tzAxZZTrgBco2jlnSpdTLzwFjaxZg2K++R
73OT0Jr+19kCVfd2eqpjAgMBAAGjdTBzMAkGA1UdEwQCMAAwHQYDVR0OBBYEFKEz
DTm6zBX5cTSs1qLIjPuKkCEBMB8GA1UdIwQYMBaAFO0vcgbrt2OUVBGZpIG31ZX7
z85cMA4GA1UdDwEB/wQEAwIHgDAWBgNVHSUBAf8EDDAKBggrBgEFBQcDCTANBgkq
hkiG9w0BAQQFAAOCAQEAf0catU+KgI2tqgTb/WsJ95mR6f4Nox4id44IZdIYK2xW
mlA2IyA5+j/P+sTF/lbsoY98HEahZaNrP2crbzuCa1GtR6KlvErdIaXMpHJGlWVT
M3skjPRT1MjVvWC9aN+fbSxjRuruyzKJM/M5j2yBW0qmt8iGya5wIs/yAfP6SF6b
Bs1SWa+TCNtZlg5xbMhL4kt+K4qxNSOn3n68CM8b6Q31Knnb8U+YPQZ6OmNwlDub
kOvothnCIWNx6WrEz8PdhD+PpivIlWsGAwzzXtRbkcJdPGcvbV+E3IRoWVRIe1kU
+A8jHv8Wm0ZPHhDJCxVsDzVrTWERsbPsR6DBYqaM5g==
-----END CERTIFICATE-----
