Certificate:
    Data:
        Version: 3 (0x2)
        Serial Number:
            36:6c:66:35:42:20:9e:05:c5:e2:90:c0:66:00:8f:b0
        Signature Algorithm: sha256WithRSAEncryption
        Issuer: C=US, ST=Colorado, O=Grimer Softwork, OU=R&D, CN=Revoked Root
        Validity
            Not Before: Oct 27 00:00:00 2020 GMT
            Not After : Oct 29 00:00:00 2025 GMT
        Subject: C=US, ST=Colorado, O=Grimer Softwork, OU=R&D, CN=Revoked Peer
        Subject Public Key Info:
            Public Key Algorithm: rsaEncryption
                RSA Public-Key: (2048 bit)
                Modulus:
                    00:ea:84:d5:54:22:cb:3c:9c:87:f3:d3:dc:94:67:
                    3d:97:7b:d2:c1:1c:68:6f:34:ec:8a:cb:a3:b0:e9:
                    66:36:da:4b:94:e1:11:d4:98:12:ed:64:5a:99:4d:
                    44:19:dd:07:89:cd:b1:22:64:4c:ce:0a:7c:d9:31:
                    98:46:23:29:bf:dc:ae:6a:ca:e3:4f:74:5b:ee:92:
                    83:36:23:33:56:65:17:d5:fa:5b:5f:25:dc:b8:77:
                    18:78:f1:0a:b7:33:8f:8e:f6:c0:66:56:3c:43:15:
                    d8:31:3c:b9:46:36:e0:2f:5e:5f:e8:e7:a7:4c:01:
                    a9:e0:43:61:cd:a5:48:69:b1:56:99:38:a5:f6:43:
                    11:18:bf:81:76:0a:07:e8:d0:57:58:0d:f9:70:8e:
                    ab:6a:f2:d2:a8:f5:63:d0:16:ba:c5:dc:74:2c:92:
                    f5:14:f7:fa:44:d4:1c:82:c6:c6:e9:28:51:5e:b3:
                    7f:94:2c:91:bf:e0:f4:57:ec:fa:2d:59:c8:34:f1:
                    0e:8e:14:43:43:12:a2:bd:27:e0:f7:45:a0:30:c7:
                    9b:e4:67:7b:fd:40:26:90:42:d8:00:02:c5:39:80:
                    d2:2f:96:9e:3b:3b:e1:6c:37:21:70:0b:95:82:48:
                    6c:51:1d:16:7a:74:b9:eb:75:91:3a:33:8e:bd:c0:
                    e4:51
                Exponent: 65537 (0x10001)
        X509v3 extensions:
            X509v3 Basic Constraints: 
                CA:FALSE
            X509v3 Key Usage: critical
                Digital Signature
            X509v3 Extended Key Usage: critical
                TLS Web Client Authentication
            X509v3 Subject Key Identifier: 
                98:F8:70:11:23:3A:E8:EE:AA:ED:24:0D:22:05:C2:68:7F:58:32:84
            X509v3 Authority Key Identifier: 
                keyid:3D:D4:EE:74:00:A4:77:C9:66:6B:73:2A:00:59:03:F8:C4:A0:90:9A

            X509v3 Issuer Alternative Name: 
                URI:http://ca.example.net/, email:certmaster@example.net
            Authority Information Access: 
                CA Issuers - URI:http://ca.example.net/certs/example.net_Intermediate_Certification_Authority.cert.pem

            X509v3 CRL Distribution Points: 

                Full Name:
                  URI:http://ca.example.net/crl/example.net_Intermediate_Certification_Authority.crl

            X509v3 Subject Alternative Name: 
                URI:http://ca.example.net/, email:certmaster@example.net
    Signature Algorithm: sha256WithRSAEncryption
         83:cd:e5:10:64:b3:bd:d6:5e:56:eb:4c:01:ad:95:29:88:96:
         f4:06:7e:a2:6b:c6:d9:3b:6e:e7:4f:9d:2d:c3:e1:8a:d1:cc:
         d3:57:8a:10:c4:08:fe:0d:4a:72:fd:f5:33:70:e3:8b:15:64:
         57:93:8a:f5:6e:0d:23:f2:87:df:ae:22:f3:62:bd:8c:bf:26:
         65:69:e2:a5:8b:66:b1:48:74:7d:96:dc:e0:3c:d7:9f:66:9b:
         96:b6:89:12:df:dd:67:26:46:bc:51:3c:2b:bb:6c:2a:b2:56:
         b5:4f:02:ea:7a:d7:bd:b3:ba:96:c1:b5:e0:c4:1e:9b:86:8e:
         d5:2a:6d:78:2e:8a:2e:fd:2a:4b:7a:db:86:3a:81:73:08:00:
         81:b4:bd:62:f1:d4:d8:26:cb:c3:55:68:58:0d:6f:34:7d:14:
         97:90:c7:a0:f9:61:43:a5:05:92:c4:67:db:61:3f:36:55:cc:
         71:0b:78:0b:30:96:e4:70:c5:19:1a:00:d3:af:fd:ae:c7:73:
         8d:5c:d6:8a:ac:28:b4:59:9a:03:75:2b:03:b9:12:21:0a:28:
         09:fc:8e:d1:7b:4a:33:f4:75:46:90:eb:f5:98:47:ba:0c:95:
         09:07:79:db:39:a3:f7:fd:33:23:06:9e:00:eb:df:82:bf:34:
         d0:2e:c5:d3
-----BEGIN CERTIFICATE-----
MIIFCzCCA/OgAwIBAgIQNmxmNUIgngXF4pDAZgCPsDANBgkqhkiG9w0BAQsFADBf
MQswCQYDVQQGEwJVUzERMA8GA1UECAwIQ29sb3JhZG8xGDAWBgNVBAoMD0dyaW1l
ciBTb2Z0d29yazEMMAoGA1UECwwDUiZEMRUwEwYDVQQDDAxSZXZva2VkIFJvb3Qw
HhcNMjAxMDI3MDAwMDAwWhcNMjUxMDI5MDAwMDAwWjBfMQswCQYDVQQGEwJVUzER
MA8GA1UECAwIQ29sb3JhZG8xGDAWBgNVBAoMD0dyaW1lciBTb2Z0d29yazEMMAoG
A1UECwwDUiZEMRUwEwYDVQQDDAxSZXZva2VkIFBlZXIwggEiMA0GCSqGSIb3DQEB
AQUAA4IBDwAwggEKAoIBAQDqhNVUIss8nIfz09yUZz2Xe9LBHGhvNOyKy6Ow6WY2
2kuU4RHUmBLtZFqZTUQZ3QeJzbEiZEzOCnzZMZhGIym/3K5qyuNPdFvukoM2IzNW
ZRfV+ltfJdy4dxh48Qq3M4+O9sBmVjxDFdgxPLlGNuAvXl/o56dMAangQ2HNpUhp
sVaZOKX2QxEYv4F2Cgfo0FdYDflwjqtq8tKo9WPQFrrF3HQskvUU9/pE1ByCxsbp
KFFes3+ULJG/4PRX7PotWcg08Q6OFENDEqK9J+D3RaAwx5vkZ3v9QCaQQtgAAsU5
gNIvlp47O+FsNyFwC5WCSGxRHRZ6dLnrdZE6M469wORRAgMBAAGjggHBMIIBvTAJ
BgNVHRMEAjAAMA4GA1UdDwEB/wQEAwIHgDAWBgNVHSUBAf8EDDAKBggrBgEFBQcD
AjAdBgNVHQ4EFgQUmPhwESM66O6q7SQNIgXCaH9YMoQwHwYDVR0jBBgwFoAUPdTu
dACkd8lma3MqAFkD+MSgkJowOQYDVR0SBDIwMIYWaHR0cDovL2NhLmV4YW1wbGUu
bmV0L4EWY2VydG1hc3RlckBleGFtcGxlLm5ldDBxBggrBgEFBQcBAQRlMGMwYQYI
KwYBBQUHMAKGVWh0dHA6Ly9jYS5leGFtcGxlLm5ldC9jZXJ0cy9leGFtcGxlLm5l
dF9JbnRlcm1lZGlhdGVfQ2VydGlmaWNhdGlvbl9BdXRob3JpdHkuY2VydC5wZW0w
XwYDVR0fBFgwVjBUoFKgUIZOaHR0cDovL2NhLmV4YW1wbGUubmV0L2NybC9leGFt
cGxlLm5ldF9JbnRlcm1lZGlhdGVfQ2VydGlmaWNhdGlvbl9BdXRob3JpdHkuY3Js
MDkGA1UdEQQyMDCGFmh0dHA6Ly9jYS5leGFtcGxlLm5ldC+BFmNlcnRtYXN0ZXJA
ZXhhbXBsZS5uZXQwDQYJKoZIhvcNAQELBQADggEBAIPN5RBks73WXlbrTAGtlSmI
lvQGfqJrxtk7budPnS3D4YrRzNNXihDECP4NSnL99TNw44sVZFeTivVuDSPyh9+u
IvNivYy/JmVp4qWLZrFIdH2W3OA8159mm5a2iRLf3WcmRrxRPCu7bCqyVrVPAup6
172zupbBteDEHpuGjtUqbXguii79Kkt624Y6gXMIAIG0vWLx1Ngmy8NVaFgNbzR9
FJeQx6D5YUOlBZLEZ9thPzZVzHELeAswluRwxRkaANOv/a7Hc41c1oqsKLRZmgN1
KwO5EiEKKAn8jtF7SjP0dUaQ6/WYR7oMlQkHeds5o/f9MyMGngDr34K/NNAuxdM=
-----END CERTIFICATE-----
