Certificate:
    Data:
        Version: 3 (0x2)
        Serial Number: 1 (0x1)
        Signature Algorithm: md5WithRSAEncryption
        Issuer: C=US, ST=Colorado, O=Grimer Softwork, OU=R&D, CN=OCSP CA
        Validity
            Not Before: Jul 27 03:57:04 2021 GMT
            Not After : Jul 26 03:57:04 2026 GMT
        Subject: C=US, ST=Colorado, O=Grimer Softwork, OU=R&D, CN=OCSP Responder
        Subject Public Key Info:
            Public Key Algorithm: rsaEncryption
                RSA Public-Key: (2048 bit)
                Modulus:
                    00:ac:e8:3e:fe:a8:ca:cb:6a:bf:aa:36:41:d1:49:
                    0e:6e:77:e2:bd:88:b2:f4:2d:40:3a:35:bf:2d:f7:
                    5d:d7:91:8f:17:0a:61:10:9e:c1:27:84:2e:b8:aa:
                    67:3c:80:43:b4:4b:f8:3f:14:56:89:8c:73:dd:23:
                    15:23:e9:1a:84:ab:69:e0:7c:53:60:99:25:de:cd:
                    71:af:f9:1c:35:40:2f:51:69:b8:87:f9:62:5b:87:
                    a7:33:db:77:8d:25:5b:87:52:b7:6b:50:8b:40:56:
                    ac:02:15:f0:8b:60:46:f6:26:62:df:29:94:b4:8b:
                    c5:da:75:97:65:83:08:8b:a9:bf:70:94:32:ad:7a:
                    83:c5:e3:22:2e:14:9c:ca:0d:25:d5:2e:f2:94:e1:
                    93:12:fd:80:cb:2e:f7:25:7c:c1:3c:52:13:a4:b0:
                    67:17:3f:6e:55:50:22:45:61:79:f1:af:da:6f:c4:
                    bd:98:32:d2:fe:35:8e:7e:bb:28:18:52:6c:6d:ea:
                    60:25:dd:4c:44:3f:fb:c9:d7:8b:e4:96:ab:92:e1:
                    f5:0d:59:f1:49:1f:72:98:bb:dc:af:8d:06:44:cc:
                    f9:c7:d8:41:fe:bb:2d:71:c6:1c:5f:a6:fa:0d:6d:
                    d6:ce:ae:79:8f:d4:b4:71:dc:00:61:24:34:ac:cd:
                    96:79
                Exponent: 65537 (0x10001)
        X509v3 extensions:
            X509v3 Basic Constraints: 
                CA:FALSE
            X509v3 Subject Key Identifier: 
                BC:91:21:FA:1E:F1:6E:E8:F9:8D:93:FC:02:8B:D3:0A:19:18:1B:5A
            X509v3 Authority Key Identifier: 
                keyid:F8:F8:94:1B:23:52:14:E2:A7:75:CB:E0:70:BF:BA:DA:B8:AA:AE:89

            X509v3 Key Usage: critical
                Digital Signature
            X509v3 Extended Key Usage: critical
                OCSP Signing
    Signature Algorithm: md5WithRSAEncryption
         18:63:b0:0a:99:59:33:8b:72:be:7b:e5:99:0b:5f:32:7b:f2:
         a3:7b:0c:93:c7:c3:33:3b:3b:34:2a:22:b5:41:e9:d8:11:17:
         5d:f2:5d:8d:e5:33:8b:95:79:ba:f6:2b:f8:cd:f2:40:05:93:
         b7:24:ae:8e:32:15:ce:19:e2:60:62:6f:27:69:1f:45:ae:ac:
         72:22:ea:38:67:60:0d:98:98:45:34:3d:b6:33:cc:b8:6b:96:
         48:0e:41:05:b6:f8:3b:0c:9e:eb:89:e0:12:47:c6:3e:a0:92:
         1e:89:f3:e5:40:c5:f1:89:d1:27:85:c0:83:d7:74:59:1e:d0:
         2e:c5:94:72:09:e6:8b:aa:df:0f:db:54:66:fa:72:0b:2e:eb:
         f6:43:1d:2a:30:4f:8d:34:26:26:30:64:8c:65:a7:a5:69:2d:
         ef:fa:ca:6e:bb:a1:b6:55:a1:1d:5b:fc:eb:a8:f9:1d:2a:ac:
         e2:f7:e3:f5:8b:d1:13:8f:de:99:50:43:e8:3e:6e:e8:23:5d:
         79:07:ce:09:74:69:af:ff:81:96:65:38:c9:fa:f1:82:9c:68:
         97:cb:96:4b:d2:4f:91:59:29:e7:6a:ea:72:ab:2e:4c:fc:ef:
         55:0d:d7:19:aa:a1:d9:ba:3a:ed:1a:a4:64:aa:4e:06:f3:f2:
         10:c0:3c:d5
-----BEGIN CERTIFICATE-----
MIIDqzCCApOgAwIBAgIBATANBgkqhkiG9w0BAQQFADBaMQswCQYDVQQGEwJVUzER
MA8GA1UECAwIQ29sb3JhZG8xGDAWBgNVBAoMD0dyaW1lciBTb2Z0d29yazEMMAoG
A1UECwwDUiZEMRAwDgYDVQQDDAdPQ1NQIENBMB4XDTIxMDcyNzAzNTcwNFoXDTI2
MDcyNjAzNTcwNFowYTELMAkGA1UEBhMCVVMxETAPBgNVBAgMCENvbG9yYWRvMRgw
FgYDVQQKDA9HcmltZXIgU29mdHdvcmsxDDAKBgNVBAsMA1ImRDEXMBUGA1UEAwwO
T0NTUCBSZXNwb25kZXIwggEiMA0GCSqGSIb3DQEBAQUAA4IBDwAwggEKAoIBAQCs
6D7+qMrLar+qNkHRSQ5ud+K9iLL0LUA6Nb8t913XkY8XCmEQnsEnhC64qmc8gEO0
S/g/FFaJjHPdIxUj6RqEq2ngfFNgmSXezXGv+Rw1QC9RabiH+WJbh6cz23eNJVuH
UrdrUItAVqwCFfCLYEb2JmLfKZS0i8XadZdlgwiLqb9wlDKteoPF4yIuFJzKDSXV
LvKU4ZMS/YDLLvclfME8UhOksGcXP25VUCJFYXnxr9pvxL2YMtL+NY5+uygYUmxt
6mAl3UxEP/vJ14vklquS4fUNWfFJH3KYu9yvjQZEzPnH2EH+uy1xxhxfpvoNbdbO
rnmP1LRx3ABhJDSszZZ5AgMBAAGjdTBzMAkGA1UdEwQCMAAwHQYDVR0OBBYEFLyR
Ifoe8W7o+Y2T/AKL0woZGBtaMB8GA1UdIwQYMBaAFPj4lBsjUhTip3XL4HC/utq4
qq6JMA4GA1UdDwEB/wQEAwIHgDAWBgNVHSUBAf8EDDAKBggrBgEFBQcDCTANBgkq
hkiG9w0BAQQFAAOCAQEAGGOwCplZM4tyvnvlmQtfMnvyo3sMk8fDMzs7NCoitUHp
2BEXXfJdjeUzi5V5uvYr+M3yQAWTtySujjIVzhniYGJvJ2kfRa6sciLqOGdgDZiY
RTQ9tjPMuGuWSA5BBbb4Owye64ngEkfGPqCSHonz5UDF8YnRJ4XAg9d0WR7QLsWU
cgnmi6rfD9tUZvpyCy7r9kMdKjBPjTQmJjBkjGWnpWkt7/rKbruhtlWhHVv866j5
HSqs4vfj9YvRE4/emVBD6D5u6CNdeQfOCXRpr/+BlmU4yfrxgpxol8uWS9JPkVkp
52rqcqsuTPzvVQ3XGaqh2bo67RqkZKpOBvPyEMA81Q==
-----END CERTIFICATE-----
