Certificate:
    Data:
        Version: 3 (0x2)
        Serial Number: 1 (0x1)
        Signature Algorithm: md5WithRSAEncryption
        Issuer: C=US, ST=Colorado, O=Grimer Softwork, OU=R&D, CN=OCSP CA
        Validity
            Not Before: Jul 21 17:47:14 2021 GMT
            Not After : Jul 20 17:47:14 2026 GMT
        Subject: C=US, ST=Colorado, O=Grimer Softwork, OU=R&D, CN=OCSP Responder
        Subject Public Key Info:
            Public Key Algorithm: rsaEncryption
                RSA Public-Key: (2048 bit)
                Modulus:
                    00:ac:40:23:27:83:5c:bd:8d:80:2c:01:39:ec:28:
                    a0:02:24:b6:ad:cd:42:a4:4b:06:fa:e4:e7:15:95:
                    5a:23:d1:cb:d2:c5:c8:dc:cb:cf:d3:3d:f2:a9:ab:
                    fa:7c:ba:19:9e:8a:16:25:98:46:02:1f:a3:28:17:
                    2a:61:3f:66:64:a8:f4:0e:a4:29:09:94:a0:ff:ce:
                    4b:91:a3:a8:6c:43:8c:34:be:91:75:23:08:41:b0:
                    b2:a7:64:aa:d3:ff:6c:22:0f:29:c7:71:86:73:88:
                    fe:cc:28:8c:60:e3:5f:3f:88:b1:14:1d:27:e2:64:
                    7d:05:7d:98:63:f5:6e:69:04:4a:0e:b2:c1:2a:5f:
                    b5:7d:17:80:eb:39:3d:e3:5c:12:b5:9e:55:ae:39:
                    59:ca:df:b7:9b:c6:33:e1:1f:34:de:f0:53:dd:6b:
                    77:01:9b:1d:ed:16:a1:97:e8:af:54:91:06:78:a4:
                    eb:2b:c9:52:6c:ba:bb:d4:63:5c:01:3f:95:fd:ba:
                    1e:fd:b7:86:ae:a8:f8:83:70:b3:19:9f:2c:87:e0:
                    93:b5:54:4e:de:46:81:64:4c:52:79:e4:e5:72:dc:
                    08:c8:97:a0:13:95:5c:01:a5:6c:32:35:3a:0d:55:
                    a4:90:aa:c4:a1:f6:6a:29:31:8a:14:d0:95:00:31:
                    21:27
                Exponent: 65537 (0x10001)
        X509v3 extensions:
            X509v3 Basic Constraints: 
                CA:FALSE
            X509v3 Subject Key Identifier: 
                37:65:D0:D9:F0:22:3A:41:88:B0:AD:F7:4F:83:59:0E:9A:C2:E3:4F
            X509v3 Authority Key Identifier: 
                keyid:E1:F0:95:5B:5D:D6:DE:63:B4:D0:AF:7F:69:E9:18:AA:ED:FF:09:03

            X509v3 Key Usage: critical
                Digital Signature
            X509v3 Extended Key Usage: critical
                OCSP Signing
    Signature Algorithm: md5WithRSAEncryption
         31:92:f5:b2:ed:84:e2:4a:25:0b:0c:cb:42:da:86:33:ef:c2:
         b9:55:e5:55:16:6f:c1:b9:e3:17:06:57:21:e8:a1:5d:d8:63:
         5f:84:36:fe:4e:7c:d7:b2:ad:91:e9:f9:31:a7:41:1d:8b:25:
         4d:6e:5e:12:e9:e3:6f:e1:35:34:d3:b8:fe:8e:9f:4f:b5:b2:
         b0:a8:43:5f:94:f7:b1:37:f1:09:69:44:f2:c7:03:22:25:f3:
         87:a8:1b:57:e5:54:4b:7b:00:f7:e1:28:d7:19:e8:09:78:ff:
         c3:93:94:26:06:f9:0c:bf:a3:09:48:08:36:74:08:03:b2:38:
         11:12:71:6d:ab:d4:e0:32:f3:28:84:73:b7:49:24:15:9c:42:
         73:15:ae:f4:6c:75:88:59:4b:d1:a0:6f:15:1c:7a:45:32:ce:
         30:78:19:ef:7b:13:7a:95:2b:f2:57:fc:fe:ab:5b:73:16:41:
         f1:ed:f7:c4:d0:1b:ef:49:d2:4d:17:7e:9f:26:ac:3c:33:65:
         84:48:d9:62:b5:c5:d9:25:1b:78:97:69:44:93:00:b3:88:d6:
         1f:8e:9b:91:59:1c:40:27:c4:38:51:f3:ae:b3:b3:65:35:ac:
         24:b8:c8:9a:02:7d:aa:c3:7b:cf:e1:bd:44:f8:33:8b:95:d6:
         a9:97:e9:44
-----BEGIN CERTIFICATE-----
MIIDqzCCApOgAwIBAgIBATANBgkqhkiG9w0BAQQFADBaMQswCQYDVQQGEwJVUzER
MA8GA1UECAwIQ29sb3JhZG8xGDAWBgNVBAoMD0dyaW1lciBTb2Z0d29yazEMMAoG
A1UECwwDUiZEMRAwDgYDVQQDDAdPQ1NQIENBMB4XDTIxMDcyMTE3NDcxNFoXDTI2
MDcyMDE3NDcxNFowYTELMAkGA1UEBhMCVVMxETAPBgNVBAgMCENvbG9yYWRvMRgw
FgYDVQQKDA9HcmltZXIgU29mdHdvcmsxDDAKBgNVBAsMA1ImRDEXMBUGA1UEAwwO
T0NTUCBSZXNwb25kZXIwggEiMA0GCSqGSIb3DQEBAQUAA4IBDwAwggEKAoIBAQCs
QCMng1y9jYAsATnsKKACJLatzUKkSwb65OcVlVoj0cvSxcjcy8/TPfKpq/p8uhme
ihYlmEYCH6MoFyphP2ZkqPQOpCkJlKD/zkuRo6hsQ4w0vpF1IwhBsLKnZKrT/2wi
DynHcYZziP7MKIxg418/iLEUHSfiZH0FfZhj9W5pBEoOssEqX7V9F4DrOT3jXBK1
nlWuOVnK37ebxjPhHzTe8FPda3cBmx3tFqGX6K9UkQZ4pOsryVJsurvUY1wBP5X9
uh79t4auqPiDcLMZnyyH4JO1VE7eRoFkTFJ55OVy3AjIl6ATlVwBpWwyNToNVaSQ
qsSh9mopMYoU0JUAMSEnAgMBAAGjdTBzMAkGA1UdEwQCMAAwHQYDVR0OBBYEFDdl
0NnwIjpBiLCt90+DWQ6awuNPMB8GA1UdIwQYMBaAFOHwlVtd1t5jtNCvf2npGKrt
/wkDMA4GA1UdDwEB/wQEAwIHgDAWBgNVHSUBAf8EDDAKBggrBgEFBQcDCTANBgkq
hkiG9w0BAQQFAAOCAQEAMZL1su2E4kolCwzLQtqGM+/CuVXlVRZvwbnjFwZXIeih
XdhjX4Q2/k5817Ktken5MadBHYslTW5eEunjb+E1NNO4/o6fT7WysKhDX5T3sTfx
CWlE8scDIiXzh6gbV+VUS3sA9+Eo1xnoCXj/w5OUJgb5DL+jCUgINnQIA7I4ERJx
bavU4DLzKIRzt0kkFZxCcxWu9Gx1iFlL0aBvFRx6RTLOMHgZ73sTepUr8lf8/qtb
cxZB8e33xNAb70nSTRd+nyasPDNlhEjZYrXF2SUbeJdpRJMAs4jWH46bkVkcQCfE
OFHzrrOzZTWsJLjImgJ9qsN7z+G9RPgzi5XWqZfpRA==
-----END CERTIFICATE-----
