Certificate:
    Data:
        Version: 3 (0x2)
        Serial Number: 2 (0x2)
        Signature Algorithm: md5WithRSAEncryption
        Issuer: C=US, ST=Colorado, O=Grimer Softwork, OU=R&D, CN=OCSP CA
        Validity
            Not Before: Jun 14 01:46:55 2021 GMT
            Not After : Jun 13 01:46:55 2026 GMT
        Subject: C=US, ST=Colorado, O=Grimer Softwork, OU=R&D, CN=OCSP Client
        Subject Public Key Info:
            Public Key Algorithm: rsaEncryption
                RSA Public-Key: (2048 bit)
                Modulus:
                    00:bf:20:45:70:34:1c:8f:ca:83:a8:56:c5:a3:7c:
                    18:8f:ae:2c:7a:0e:64:92:88:a6:f2:39:a1:a8:c6:
                    a7:78:21:f3:c6:38:8c:6e:0a:10:28:d2:86:e2:61:
                    f7:82:73:14:15:38:94:49:62:80:40:45:6d:73:ef:
                    18:c0:f6:cf:8e:18:fe:b3:1b:b7:ed:10:fc:1d:14:
                    e9:75:fb:11:c2:75:1c:dd:e5:ae:c1:ad:34:a8:c9:
                    9b:91:21:ef:9b:a4:fd:60:1e:7b:ff:35:bf:fc:bd:
                    46:d5:dd:f4:5a:b7:ef:c5:5a:b5:ca:a2:9f:10:8a:
                    29:21:7d:bc:b6:0c:e2:f2:bd:7c:7f:fd:cd:69:8a:
                    cf:64:35:28:81:eb:b9:02:66:92:15:36:62:60:ed:
                    c0:f1:bb:62:79:1d:96:86:d5:da:ad:16:aa:72:c0:
                    3c:46:17:d4:09:f9:42:b6:2b:ea:72:47:af:cc:95:
                    ec:d0:a0:21:e4:51:cf:98:04:08:a7:79:ff:01:9a:
                    c7:4b:95:d3:04:e3:2b:d5:80:94:d7:fd:da:5e:e0:
                    6a:af:97:08:a9:69:67:90:71:67:b2:11:8d:b2:7e:
                    76:1c:bd:65:d7:94:c1:45:af:75:7d:e2:5c:fc:cd:
                    4c:5d:32:75:fc:b2:f7:cb:ef:71:7b:0d:a8:aa:b7:
                    73:f3
                Exponent: 65537 (0x10001)
        X509v3 extensions:
            X509v3 Basic Constraints: 
                CA:FALSE
            X509v3 Subject Key Identifier: 
                94:6C:6E:F1:D1:1D:E9:4E:8D:4D:AF:C1:16:AE:64:42:54:11:2B:DA
            X509v3 Authority Key Identifier: 
                keyid:ED:2F:72:06:EB:B7:63:94:54:11:99:A4:81:B7:D5:95:FB:CF:CE:5C

            Authority Information Access: 
                OCSP - URI:http://localhost:9999

            X509v3 Key Usage: critical
                Digital Signature, Key Encipherment
            X509v3 Extended Key Usage: 
                TLS Web Client Authentication
    Signature Algorithm: md5WithRSAEncryption
         8e:b2:8c:18:f7:1e:17:7b:c4:dd:db:42:5f:22:40:a6:ba:26:
         86:35:27:45:ba:23:28:e4:2f:12:e0:d5:da:be:96:ef:03:1a:
         9b:77:82:a8:b8:e9:da:1b:9e:c9:4e:04:eb:53:88:2d:43:20:
         78:89:c3:ad:7c:aa:70:84:5c:a1:0f:19:c3:a7:0b:96:02:0d:
         d9:fd:94:ce:f3:ca:cf:64:a8:75:7a:96:40:f7:54:ed:26:03:
         58:c3:ed:c9:54:1a:2e:82:7c:50:98:7e:29:f4:75:b8:89:14:
         04:37:6e:90:1c:5f:9f:b1:5c:ed:75:a6:f4:11:50:ed:18:81:
         c9:19:19:bf:6f:71:7a:2f:c7:f8:40:ee:e7:f6:93:15:6f:c9:
         1c:23:22:f9:e7:ab:41:69:06:00:12:cb:35:f2:34:bf:a0:74:
         dd:e4:48:95:bb:21:bc:36:a1:c3:79:66:96:30:28:a3:cd:42:
         6e:71:c5:59:d5:da:c8:7d:85:0e:18:46:fc:12:26:0e:f8:38:
         6c:16:58:a8:02:5f:7f:c4:4a:81:33:9e:23:32:7e:88:60:81:
         48:44:9a:53:40:66:6c:ef:11:b4:82:28:82:53:4e:8d:1c:fe:
         f1:b9:6f:06:78:71:c7:a4:ac:cb:82:34:eb:d9:a0:8e:dc:5a:
         29:02:eb:bb
-----BEGIN CERTIFICATE-----
MIID2jCCAsKgAwIBAgIBAjANBgkqhkiG9w0BAQQFADBaMQswCQYDVQQGEwJVUzER
MA8GA1UECAwIQ29sb3JhZG8xGDAWBgNVBAoMD0dyaW1lciBTb2Z0d29yazEMMAoG
A1UECwwDUiZEMRAwDgYDVQQDDAdPQ1NQIENBMB4XDTIxMDYxNDAxNDY1NVoXDTI2
MDYxMzAxNDY1NVowXjELMAkGA1UEBhMCVVMxETAPBgNVBAgMCENvbG9yYWRvMRgw
FgYDVQQKDA9HcmltZXIgU29mdHdvcmsxDDAKBgNVBAsMA1ImRDEUMBIGA1UEAwwL
T0NTUCBDbGllbnQwggEiMA0GCSqGSIb3DQEBAQUAA4IBDwAwggEKAoIBAQC/IEVw
NByPyoOoVsWjfBiPrix6DmSSiKbyOaGoxqd4IfPGOIxuChAo0obiYfeCcxQVOJRJ
YoBARW1z7xjA9s+OGP6zG7ftEPwdFOl1+xHCdRzd5a7BrTSoyZuRIe+bpP1gHnv/
Nb/8vUbV3fRat+/FWrXKop8Qiikhfby2DOLyvXx//c1pis9kNSiB67kCZpIVNmJg
7cDxu2J5HZaG1dqtFqpywDxGF9QJ+UK2K+pyR6/MlezQoCHkUc+YBAinef8BmsdL
ldME4yvVgJTX/dpe4GqvlwipaWeQcWeyEY2yfnYcvWXXlMFFr3V94lz8zUxdMnX8
svfL73F7Daiqt3PzAgMBAAGjgaYwgaMwCQYDVR0TBAIwADAdBgNVHQ4EFgQUlGxu
8dEd6U6NTa/BFq5kQlQRK9owHwYDVR0jBBgwFoAU7S9yBuu3Y5RUEZmkgbfVlfvP
zlwwMQYIKwYBBQUHAQEEJTAjMCEGCCsGAQUFBzABhhVodHRwOi8vbG9jYWxob3N0
Ojk5OTkwDgYDVR0PAQH/BAQDAgWgMBMGA1UdJQQMMAoGCCsGAQUFBwMCMA0GCSqG
SIb3DQEBBAUAA4IBAQCOsowY9x4Xe8Td20JfIkCmuiaGNSdFuiMo5C8S4NXavpbv
Axqbd4KouOnaG57JTgTrU4gtQyB4icOtfKpwhFyhDxnDpwuWAg3Z/ZTO88rPZKh1
epZA91TtJgNYw+3JVBougnxQmH4p9HW4iRQEN26QHF+fsVztdab0EVDtGIHJGRm/
b3F6L8f4QO7n9pMVb8kcIyL556tBaQYAEss18jS/oHTd5EiVuyG8NqHDeWaWMCij
zUJuccVZ1drIfYUOGEb8EiYO+DhsFlioAl9/xEqBM54jMn6IYIFIRJpTQGZs7xG0
giiCU06NHP7xuW8GeHHHpKzLgjTr2aCO3FopAuu7
-----END CERTIFICATE-----
