Certificate:
    Data:
        Version: 3 (0x2)
        Serial Number: 2 (0x2)
        Signature Algorithm: md5WithRSAEncryption
        Issuer: C=US, ST=Colorado, O=Grimer Softwork, OU=R&D, CN=OCSP CA
        Validity
            Not Before: Jun  6 19:31:10 2021 GMT
            Not After : Jun  5 19:31:10 2026 GMT
        Subject: C=US, ST=Colorado, O=Grimer Softwork, OU=R&D, CN=OCSP Client
        Subject Public Key Info:
            Public Key Algorithm: rsaEncryption
                RSA Public-Key: (2048 bit)
                Modulus:
                    00:b7:1c:a7:b6:59:f7:e9:f4:49:ca:be:50:ee:4a:
                    b5:6a:a3:b8:10:20:e3:6d:fa:2d:75:c1:5c:5e:ed:
                    1d:fe:0d:fd:aa:08:1d:51:f6:40:00:2d:84:bd:8d:
                    62:a5:b3:34:a8:c2:05:1a:80:1a:1f:d1:39:7e:a0:
                    9e:fc:f2:ee:fd:66:f6:c3:c3:84:e5:91:1f:e6:20:
                    91:c9:fb:be:d4:ea:4d:9b:b2:1a:aa:2a:72:5f:fd:
                    ae:0d:90:34:5d:82:31:e4:14:58:d5:d3:01:b1:1c:
                    a0:1a:ba:03:55:33:fd:03:af:4b:7d:68:02:b3:3c:
                    fa:f3:de:27:ff:77:b0:15:01:31:2b:9a:a4:e0:bb:
                    35:86:2e:23:a7:50:e6:7c:52:65:e2:80:17:f6:a7:
                    90:72:27:5f:5c:37:32:f7:b6:8d:96:da:ba:bb:e1:
                    7f:a8:ed:c7:85:3e:2d:76:d2:9f:70:93:15:96:58:
                    25:c2:68:a0:2f:2d:46:27:31:8a:e1:1a:0f:af:0b:
                    10:91:da:66:4a:8a:af:d7:c1:45:47:00:17:9a:b0:
                    e6:39:e3:17:cb:70:c1:0a:28:b3:f0:76:4d:71:c3:
                    0b:94:93:a2:99:4e:2b:54:c2:ae:9c:89:da:c9:ea:
                    1f:90:56:be:bb:24:32:77:be:6d:e2:8e:8c:38:01:
                    f0:03
                Exponent: 65537 (0x10001)
        X509v3 extensions:
            X509v3 Basic Constraints: 
                CA:FALSE
            X509v3 Subject Key Identifier: 
                99:5A:68:54:D0:4D:29:74:E8:5C:CD:F1:D8:77:B1:42:A9:35:DC:D3
            X509v3 Authority Key Identifier: 
                keyid:38:AB:47:15:41:B5:24:61:36:35:1F:53:3D:9B:3F:25:74:95:0F:CE

            Authority Information Access: 
                OCSP - URI:http://localhost:9999

            X509v3 Key Usage: critical
                Digital Signature, Key Encipherment
            X509v3 Extended Key Usage: 
                TLS Web Client Authentication
    Signature Algorithm: md5WithRSAEncryption
         6e:be:6d:39:cc:11:d1:fb:f0:5b:02:a7:0b:04:43:69:17:1a:
         ff:4f:5c:07:f7:dc:ff:8a:b2:c9:94:cc:12:5b:1e:eb:ca:e7:
         88:96:6f:c3:92:db:27:51:71:2d:df:23:e8:06:87:c4:0d:1a:
         d1:f8:c6:6f:c9:f3:af:79:26:db:ef:d0:4d:62:10:7b:ab:cd:
         6f:c1:50:23:f8:5a:af:5a:5a:cb:57:46:6a:73:38:17:3b:5f:
         d8:6b:2c:b8:3c:69:b1:a0:56:1a:33:74:74:af:46:c0:69:b8:
         0d:60:cc:b5:6b:7b:42:97:4f:49:eb:63:93:64:f5:34:2b:63:
         9a:a2:8b:2e:d3:7f:d5:67:7e:28:7b:be:ee:81:86:a8:b2:c3:
         4e:16:ea:e9:8d:e9:d2:35:c9:d8:c3:c9:f7:ca:fd:8e:da:17:
         a8:44:75:1b:0e:e3:f3:4a:f4:1b:a5:2f:d8:77:fa:2c:05:00:
         8c:fc:6e:61:98:b7:38:b5:de:be:82:59:4d:bc:6f:b2:13:01:
         cd:cd:79:24:61:ad:6f:bb:05:00:04:b1:c7:33:cf:ac:f5:c4:
         f1:26:84:fb:1a:22:af:9b:cf:82:62:a2:f3:49:d6:db:e6:6b:
         16:66:6b:6d:83:96:05:d8:64:9e:5e:41:87:dd:12:9c:ad:4a:
         b7:40:11:66
-----BEGIN CERTIFICATE-----
MIID2jCCAsKgAwIBAgIBAjANBgkqhkiG9w0BAQQFADBaMQswCQYDVQQGEwJVUzER
MA8GA1UECAwIQ29sb3JhZG8xGDAWBgNVBAoMD0dyaW1lciBTb2Z0d29yazEMMAoG
A1UECwwDUiZEMRAwDgYDVQQDDAdPQ1NQIENBMB4XDTIxMDYwNjE5MzExMFoXDTI2
MDYwNTE5MzExMFowXjELMAkGA1UEBhMCVVMxETAPBgNVBAgMCENvbG9yYWRvMRgw
FgYDVQQKDA9HcmltZXIgU29mdHdvcmsxDDAKBgNVBAsMA1ImRDEUMBIGA1UEAwwL
T0NTUCBDbGllbnQwggEiMA0GCSqGSIb3DQEBAQUAA4IBDwAwggEKAoIBAQC3HKe2
Wffp9EnKvlDuSrVqo7gQIONt+i11wVxe7R3+Df2qCB1R9kAALYS9jWKlszSowgUa
gBof0Tl+oJ788u79ZvbDw4TlkR/mIJHJ+77U6k2bshqqKnJf/a4NkDRdgjHkFFjV
0wGxHKAaugNVM/0Dr0t9aAKzPPrz3if/d7AVATErmqTguzWGLiOnUOZ8UmXigBf2
p5ByJ19cNzL3to2W2rq74X+o7ceFPi120p9wkxWWWCXCaKAvLUYnMYrhGg+vCxCR
2mZKiq/XwUVHABeasOY54xfLcMEKKLPwdk1xwwuUk6KZTitUwq6cidrJ6h+QVr67
JDJ3vm3ijow4AfADAgMBAAGjgaYwgaMwCQYDVR0TBAIwADAdBgNVHQ4EFgQUmVpo
VNBNKXToXM3x2HexQqk13NMwHwYDVR0jBBgwFoAUOKtHFUG1JGE2NR9TPZs/JXSV
D84wMQYIKwYBBQUHAQEEJTAjMCEGCCsGAQUFBzABhhVodHRwOi8vbG9jYWxob3N0
Ojk5OTkwDgYDVR0PAQH/BAQDAgWgMBMGA1UdJQQMMAoGCCsGAQUFBwMCMA0GCSqG
SIb3DQEBBAUAA4IBAQBuvm05zBHR+/BbAqcLBENpFxr/T1wH99z/irLJlMwSWx7r
yueIlm/DktsnUXEt3yPoBofEDRrR+MZvyfOveSbb79BNYhB7q81vwVAj+FqvWlrL
V0ZqczgXO1/Yayy4PGmxoFYaM3R0r0bAabgNYMy1a3tCl09J62OTZPU0K2Oaoosu
03/VZ34oe77ugYaossNOFurpjenSNcnYw8n3yv2O2heoRHUbDuPzSvQbpS/Yd/os
BQCM/G5hmLc4td6+gllNvG+yEwHNzXkkYa1vuwUABLHHM8+s9cTxJoT7GiKvm8+C
YqLzSdbb5msWZmttg5YF2GSeXkGH3RKcrUq3QBFm
-----END CERTIFICATE-----
