Certificate:
    Data:
        Version: 3 (0x2)
        Serial Number:
            43:0d:fd:3c:45:e2:3b:6b:78:04:fd:6c:16:48:5a:80
        Signature Algorithm: sha256WithRSAEncryption
        Issuer: C=US, ST=Colorado, O=Grimer Softwork, OU=R&D, CN=Revoked Root
        Validity
            Not Before: Oct 27 00:00:00 2020 GMT
            Not After : Oct 29 00:00:00 2030 GMT
        Subject: C=US, ST=Colorado, O=Grimer Softwork, OU=R&D, CN=Revoked Root
        Subject Public Key Info:
            Public Key Algorithm: rsaEncryption
                RSA Public-Key: (2048 bit)
                Modulus:
                    00:b2:4b:a2:1f:90:3b:a2:0f:c7:17:18:1c:52:d3:
                    da:0e:35:48:ee:8d:8b:35:54:7a:a0:35:c6:37:3b:
                    55:1d:fe:a6:0b:aa:50:6a:88:9b:b0:c2:85:a4:7c:
                    d6:f6:6f:10:a3:d5:3f:f4:77:c3:0d:96:54:1d:b5:
                    9a:4d:53:ec:0b:86:8b:64:f4:fc:3f:73:a7:d0:a4:
                    1d:b9:ea:2c:51:e5:c7:39:e9:38:8e:7e:d8:44:64:
                    68:af:bc:a0:4b:94:2b:a2:bb:86:77:2c:59:3b:0d:
                    22:dd:e8:13:c6:e0:e1:0d:01:39:9a:ae:44:2d:2f:
                    c8:9b:10:fa:6b:13:40:ff:57:86:01:c6:59:e0:23:
                    75:a2:cb:f2:0d:da:b9:f7:72:1c:fc:26:f1:dd:3c:
                    a1:d4:36:aa:82:8a:f4:ea:05:ac:fd:33:98:f2:a9:
                    bd:76:69:ac:ed:87:00:d0:cb:e4:aa:7b:5a:aa:83:
                    d0:fe:68:91:0c:28:69:d3:c7:2a:30:d3:94:cd:31:
                    1c:19:78:aa:5d:c5:66:c7:6f:97:ea:27:c4:ce:81:
                    dd:42:13:1a:79:a8:db:77:54:c9:be:15:ec:cf:a9:
                    f1:ef:88:99:dc:4f:bc:cb:2d:7d:6a:0d:a9:d5:47:
                    65:e5:ea:05:98:93:24:45:6f:24:b6:90:7c:bc:db:
                    e1:d7
                Exponent: 65537 (0x10001)
        X509v3 extensions:
            X509v3 Basic Constraints: critical
                CA:TRUE
            X509v3 Key Usage: critical
                Certificate Sign, CRL Sign
            X509v3 Name Constraints: critical
                Permitted:
                  DNS:example.net
                  DNS:example.org
                  DNS:lan
                  DNS:onion
                  email:example.net
                  email:example.org

            X509v3 Subject Key Identifier: 
                3D:D4:EE:74:00:A4:77:C9:66:6B:73:2A:00:59:03:F8:C4:A0:90:9A
            X509v3 Subject Alternative Name: 
                URI:http://ca.example.net/, email:certmaster@example.net
            X509v3 Authority Key Identifier: 
                keyid:3D:D4:EE:74:00:A4:77:C9:66:6B:73:2A:00:59:03:F8:C4:A0:90:9A

            X509v3 Issuer Alternative Name: 
                URI:http://ca.example.net/, email:certmaster@example.net
            Authority Information Access: 
                CA Issuers - URI:http://ca.example.net/certs/example.net_Root_Certification_Authority.cert.pem

            X509v3 CRL Distribution Points: 

                Full Name:
                  URI:http://ca.example.net/crl/example.net_Root_Certification_Authority.crl

    Signature Algorithm: sha256WithRSAEncryption
         29:02:da:61:70:98:21:39:34:e3:56:9f:e4:25:fc:62:2b:eb:
         39:c4:56:a6:40:13:f1:88:37:42:7b:fc:d3:d8:23:dc:f6:69:
         53:22:08:49:29:29:25:02:14:aa:f5:27:36:85:9b:55:27:95:
         61:e1:71:18:31:57:0e:11:8c:dc:ed:ff:8e:a2:17:be:33:54:
         44:a0:9b:4f:47:23:dd:69:53:8a:e8:9e:9c:39:67:a9:c3:f4:
         32:87:cd:81:09:69:a9:60:4b:d6:ba:bd:93:e2:cd:f9:a9:fe:
         72:b8:08:1d:5f:4c:71:42:51:25:57:7e:41:c8:73:01:05:f5:
         3a:9d:24:00:4a:12:40:55:1c:cd:ae:5d:ae:fa:dd:15:fa:ac:
         dd:09:84:1c:ec:ae:35:26:33:3c:a1:1b:fa:7b:11:e1:7f:67:
         0a:24:51:20:23:4c:40:f5:4d:9d:6b:9a:52:b8:41:9f:ce:dd:
         04:41:70:d1:c0:76:b9:86:86:a7:0e:9c:88:c1:74:73:88:61:
         94:00:05:9f:59:9f:fa:e6:90:b0:bc:d8:65:02:fa:d3:15:88:
         80:e4:88:e4:eb:ea:91:09:c0:02:3f:eb:e0:0c:34:da:e7:c3:
         85:1c:d0:73:7c:cd:7b:a4:34:fd:b9:7c:19:7b:c4:63:e8:52:
         4a:7e:99:71
-----BEGIN CERTIFICATE-----
MIIFRTCCBC2gAwIBAgIQQw39PEXiO2t4BP1sFkhagDANBgkqhkiG9w0BAQsFADBf
MQswCQYDVQQGEwJVUzERMA8GA1UECAwIQ29sb3JhZG8xGDAWBgNVBAoMD0dyaW1l
ciBTb2Z0d29yazEMMAoGA1UECwwDUiZEMRUwEwYDVQQDDAxSZXZva2VkIFJvb3Qw
HhcNMjAxMDI3MDAwMDAwWhcNMzAxMDI5MDAwMDAwWjBfMQswCQYDVQQGEwJVUzER
MA8GA1UECAwIQ29sb3JhZG8xGDAWBgNVBAoMD0dyaW1lciBTb2Z0d29yazEMMAoG
A1UECwwDUiZEMRUwEwYDVQQDDAxSZXZva2VkIFJvb3QwggEiMA0GCSqGSIb3DQEB
AQUAA4IBDwAwggEKAoIBAQCyS6IfkDuiD8cXGBxS09oONUjujYs1VHqgNcY3O1Ud
/qYLqlBqiJuwwoWkfNb2bxCj1T/0d8MNllQdtZpNU+wLhotk9Pw/c6fQpB256ixR
5cc56TiOfthEZGivvKBLlCuiu4Z3LFk7DSLd6BPG4OENATmarkQtL8ibEPprE0D/
V4YBxlngI3Wiy/IN2rn3chz8JvHdPKHUNqqCivTqBaz9M5jyqb12aazthwDQy+Sq
e1qqg9D+aJEMKGnTxyow05TNMRwZeKpdxWbHb5fqJ8TOgd1CExp5qNt3VMm+FezP
qfHviJncT7zLLX1qDanVR2Xl6gWYkyRFbyS2kHy82+HXAgMBAAGjggH7MIIB9zAP
BgNVHRMBAf8EBTADAQH/MA4GA1UdDwEB/wQEAwIBBjBaBgNVHR4BAf8EUDBOoEww
DYILZXhhbXBsZS5uZXQwDYILZXhhbXBsZS5vcmcwBYIDbGFuMAeCBW9uaW9uMA2B
C2V4YW1wbGUubmV0MA2BC2V4YW1wbGUub3JnMB0GA1UdDgQWBBQ91O50AKR3yWZr
cyoAWQP4xKCQmjA5BgNVHREEMjAwhhZodHRwOi8vY2EuZXhhbXBsZS5uZXQvgRZj
ZXJ0bWFzdGVyQGV4YW1wbGUubmV0MB8GA1UdIwQYMBaAFD3U7nQApHfJZmtzKgBZ
A/jEoJCaMDkGA1UdEgQyMDCGFmh0dHA6Ly9jYS5leGFtcGxlLm5ldC+BFmNlcnRt
YXN0ZXJAZXhhbXBsZS5uZXQwaQYIKwYBBQUHAQEEXTBbMFkGCCsGAQUFBzAChk1o
dHRwOi8vY2EuZXhhbXBsZS5uZXQvY2VydHMvZXhhbXBsZS5uZXRfUm9vdF9DZXJ0
aWZpY2F0aW9uX0F1dGhvcml0eS5jZXJ0LnBlbTBXBgNVHR8EUDBOMEygSqBIhkZo
dHRwOi8vY2EuZXhhbXBsZS5uZXQvY3JsL2V4YW1wbGUubmV0X1Jvb3RfQ2VydGlm
aWNhdGlvbl9BdXRob3JpdHkuY3JsMA0GCSqGSIb3DQEBCwUAA4IBAQApAtphcJgh
OTTjVp/kJfxiK+s5xFamQBPxiDdCe/zT2CPc9mlTIghJKSklAhSq9Sc2hZtVJ5Vh
4XEYMVcOEYzc7f+Oohe+M1REoJtPRyPdaVOK6J6cOWepw/Qyh82BCWmpYEvWur2T
4s35qf5yuAgdX0xxQlElV35ByHMBBfU6nSQAShJAVRzNrl2u+t0V+qzdCYQc7K41
JjM8oRv6exHhf2cKJFEgI0xA9U2da5pSuEGfzt0EQXDRwHa5hoanDpyIwXRziGGU
AAWfWZ/65pCwvNhlAvrTFYiA5Ijk6+qRCcACP+vgDDTa58OFHNBzfM17pDT9uXwZ
e8Rj6FJKfplx
-----END CERTIFICATE-----
-----BEGIN X509 CRL-----
MIICSDCCATACAQEwDQYJKoZIhvcNAQELBQAwXzELMAkGA1UEBhMCVVMxETAPBgNV
BAgMCENvbG9yYWRvMRgwFgYDVQQKDA9HcmltZXIgU29mdHdvcmsxDDAKBgNVBAsM
A1ImRDEVMBMGA1UEAwwMUmV2b2tlZCBSb290Fw0yMDEwMjgxODI5MzJaFw0yMTA0
MjYxODI5MzJaMDEwLwIQNmxmNUIgngXF4pDAZgCPsBcNMjAxMDI4MTcyNTEyWjAM
MAoGA1UdFQQDCgEBoGowaDAfBgNVHSMEGDAWgBQ91O50AKR3yWZrcyoAWQP4xKCQ
mjA5BgNVHRIEMjAwhhZodHRwOi8vY2EuZXhhbXBsZS5uZXQvgRZjZXJ0bWFzdGVy
QGV4YW1wbGUubmV0MAoGA1UdFAQDAgEBMA0GCSqGSIb3DQEBCwUAA4IBAQBWpfAw
2cdPyPQwhElOkFh/pnCSIaaFJZcoXMuBQm3AsC88qAe7e4a5iRlaa5zbeqRXSDqj
6nMaPKjxu8y/Ux+O9XOGLqll8MrJekl0SBHAmxaxFz7ir3qbzr1x1aQEke5Esii/
+StgcCzxsoPh5FfJ3Z9bsYdvmlgd1HiWUWgysLLMjMXJrC4GE2XYau2obK9xIeQH
gpfmeW/vRgOPCJdr6wrT0dONSrbA83/PT94rCL10aDO7HQ0ka5uI9FFccufLm40F
eD44AYVM8gYHrvWdbo9BF7yxEmAzQi/WO3+uCHiH6xGhQ6V1c51CswU8wTP11ZBF
RSAOVzmYO7uScLIB
-----END X509 CRL-----
